target datalayout = "e-m:e-p270:32:32-p271:32:32-p272:64:64-i64:64-i128:128-f80:128-n8:16:32:64-S128"
target triple = "x86_64-pc-linux-gnu"

; Function Attrs: inlinehint nounwind sspstrong uwtable
define internal double @m_virtual_sg(ptr noundef %0) #3 {
  %2 = alloca double, align 8
  %3 = alloca ptr, align 8
  store ptr %0, ptr %3, align 8, !tbaa !27
  %4 = load ptr, ptr %3, align 8, !tbaa !27
  %5 = load i32, ptr %4, align 8, !tbaa !38
  %6 = and i32 %5, 128
  %7 = icmp ne i32 %6, 0
  br i1 %7, label %11, label %8

8:                                                ; preds = %1
  %9 = load ptr, ptr %3, align 8, !tbaa !27
  %10 = call double @s_virtual_sg(ptr noundef %9)
  store double %10, ptr %2, align 8
  br label %14

11:                                               ; preds = %1
  %12 = load ptr, ptr %3, align 8, !tbaa !27
  %13 = call double @c_virtual_sg(ptr noundef %12)
  store double %13, ptr %2, align 8
  br label %14

14:                                               ; preds = %11, %8
  %15 = load double, ptr %2, align 8
  ret double %15
}

; Function Attrs: nounwind sspstrong uwtable
define internal i32 @m_cweek(ptr noundef %0) #0 {
  %2 = alloca ptr, align 8
  %3 = alloca i32, align 4
  %4 = alloca i32, align 4
  %5 = alloca i32, align 4
  store ptr %0, ptr %2, align 8, !tbaa !27
  call void @llvm.lifetime.start.p0(i64 4, ptr %3) #23
  call void @llvm.lifetime.start.p0(i64 4, ptr %4) #23
  call void @llvm.lifetime.start.p0(i64 4, ptr %5) #23
  %6 = load ptr, ptr %2, align 8, !tbaa !27
  %7 = call i32 @m_local_jd(ptr noundef %6)
  %8 = load ptr, ptr %2, align 8, !tbaa !27
  %9 = call double @m_virtual_sg(ptr noundef %8)
  call void @c_jd_to_commercial(i32 noundef %7, double noundef %9, ptr noundef %3, ptr noundef %4, ptr noundef %5)
  %10 = load i32, ptr %4, align 4, !tbaa !19
  call void @llvm.lifetime.end.p0(i64 4, ptr %5) #23
  call void @llvm.lifetime.end.p0(i64 4, ptr %4) #23
  call void @llvm.lifetime.end.p0(i64 4, ptr %3) #23
  ret i32 %10
}