; Function Attrs: nounwind sspstrong uwtable
define internal i32 @m_cweek(ptr noundef captures(none) %0) #0 {
  %2 = alloca i32, align 4
  %3 = alloca i32, align 4
  %4 = alloca i32, align 4
  call void @llvm.lifetime.start.p0(i64 4, ptr nonnull %2) #21
  call void @llvm.lifetime.start.p0(i64 4, ptr nonnull %3) #21
  call void @llvm.lifetime.start.p0(i64 4, ptr nonnull %4) #21
  %5 = tail call fastcc i32 @m_local_jd(ptr noundef %0)
  %6 = load i32, ptr %0, align 8, !tbaa !47
  %7 = and i32 %6, 128
  %.not.i = icmp eq i32 %7, 0
  br i1 %.not.i, label %8, label %10

8:                                                ; preds = %1
  %9 = tail call fastcc double @s_virtual_sg(ptr noundef nonnull readonly %0)
  br label %m_virtual_sg.exit

10:                                               ; preds = %1
  %11 = tail call fastcc double @c_virtual_sg(ptr noundef nonnull readonly %0)
  br label %m_virtual_sg.exit

m_virtual_sg.exit:                                ; preds = %8, %10
  %.0.i = phi double [ %11, %10 ], [ %9, %8 ]
  call fastcc void @c_jd_to_commercial(i32 noundef %5, double noundef %.0.i, ptr noundef %2, ptr noundef %3, ptr noundef %4)
  %12 = load i32, ptr %3, align 4, !tbaa !33
  call void @llvm.lifetime.end.p0(i64 4, ptr nonnull %4) #21
  call void @llvm.lifetime.end.p0(i64 4, ptr nonnull %3) #21
  call void @llvm.lifetime.end.p0(i64 4, ptr nonnull %2) #21
  ret i32 %12
}